target datalayout = "e-m:e-p270:32:32-p271:32:32-p272:64:64-i64:64-i128:128-f80:128-n8:16:32:64-S128"
target triple = "x86_64-pc-linux-gnu"

%struct.PLpgSQL_execstate = type { ptr, ptr, ptr, i64, i8, i32, i32, i8, i8, i8, i8, ptr, ptr, ptr, ptr, ptr, ptr, ptr, i32, i32, ptr, ptr, ptr, ptr, ptr, ptr, ptr, ptr, ptr, ptr, i64, ptr, ptr, ptr, ptr, ptr }
%struct.ExprContext = type { i32, ptr, ptr, ptr, ptr, ptr, ptr, ptr, ptr, ptr, i64, i8, i64, i8, ptr, ptr, ptr, ptr }
%struct.ParamListInfoData = type { ptr, ptr, ptr, ptr, ptr, ptr, ptr, i32, [0 x %struct.ParamExternData] }
%struct.ParamExternData = type { i64, i8, i16, i32 }
%struct.ExprEvalStep = type { i64, ptr, ptr, %union.anon.1 }
%union.anon.1 = type { %struct.anon.26 }
%struct.anon.26 = type { ptr, ptr, i32, i32, ptr, ptr }
%struct.anon.15 = type { ptr, ptr, ptr, i32, i32 }

@.str.2 = private unnamed_addr constant [11 x i8] c"plpgsql-18\00", align 1
@.str.4 = private unnamed_addr constant [10 x i8] c"pl_exec.c\00", align 1
@.str.137 = private unnamed_addr constant [75 x i8] c"type of parameter %d (%s) does not match that when preparing the plan (%s)\00", align 1
@__func__.plpgsql_param_eval_generic_ro = private unnamed_addr constant [30 x i8] c"plpgsql_param_eval_generic_ro\00", align 1

; Function Attrs: nounwind uwtable
define internal void @plpgsql_param_eval_generic_ro(ptr noundef %0, ptr noundef %1, ptr noundef %2) #0 {
  %4 = alloca ptr, align 8
  %5 = alloca ptr, align 8
  %6 = alloca ptr, align 8
  %7 = alloca ptr, align 8
  %8 = alloca ptr, align 8
  %9 = alloca i32, align 4
  %10 = alloca ptr, align 8
  %11 = alloca i32, align 4
  %12 = alloca i32, align 4
  store ptr %0, ptr %4, align 8
  store ptr %1, ptr %5, align 8
  store ptr %2, ptr %6, align 8
  call void @llvm.lifetime.start.p0(i64 8, ptr %7) #12
  call void @llvm.lifetime.start.p0(i64 8, ptr %8) #12
  call void @llvm.lifetime.start.p0(i64 4, ptr %9) #12
  %13 = load ptr, ptr %5, align 8
  %14 = getelementptr inbounds nuw %struct.ExprEvalStep, ptr %13, i32 0, i32 3
  %15 = getelementptr inbounds nuw %struct.anon.15, ptr %14, i32 0, i32 3
  %16 = load i32, ptr %15, align 8
  %17 = sub i32 %16, 1
  store i32 %17, ptr %9, align 4
  call void @llvm.lifetime.start.p0(i64 8, ptr %10) #12
  call void @llvm.lifetime.start.p0(i64 4, ptr %11) #12
  call void @llvm.lifetime.start.p0(i64 4, ptr %12) #12
  %18 = load ptr, ptr %6, align 8
  %19 = getelementptr inbounds nuw %struct.ExprContext, ptr %18, i32 0, i32 7
  %20 = load ptr, ptr %19, align 8
  store ptr %20, ptr %7, align 8
  %21 = load ptr, ptr %7, align 8
  %22 = getelementptr inbounds nuw %struct.ParamListInfoData, ptr %21, i32 0, i32 1
  %23 = load ptr, ptr %22, align 8
  store ptr %23, ptr %8, align 8
  %24 = load ptr, ptr %8, align 8
  %25 = getelementptr inbounds nuw %struct.PLpgSQL_execstate, ptr %24, i32 0, i32 20
  %26 = load ptr, ptr %25, align 8
  %27 = load i32, ptr %9, align 4
  %28 = sext i32 %27 to i64
  %29 = getelementptr inbounds ptr, ptr %26, i64 %28
  %30 = load ptr, ptr %29, align 8
  store ptr %30, ptr %10, align 8
  %31 = load ptr, ptr %8, align 8
  %32 = load ptr, ptr %10, align 8
  %33 = load ptr, ptr %5, align 8
  %34 = getelementptr inbounds nuw %struct.ExprEvalStep, ptr %33, i32 0, i32 1
  %35 = load ptr, ptr %34, align 8
  %36 = load ptr, ptr %5, align 8
  %37 = getelementptr inbounds nuw %struct.ExprEvalStep, ptr %36, i32 0, i32 2
  %38 = load ptr, ptr %37, align 8
  call void @exec_eval_datum(ptr noundef %31, ptr noundef %32, ptr noundef %11, ptr noundef %12, ptr noundef %35, ptr noundef %38)
  %39 = load i32, ptr %11, align 4
  %40 = load ptr, ptr %5, align 8
  %41 = getelementptr inbounds nuw %struct.ExprEvalStep, ptr %40, i32 0, i32 3
  %42 = getelementptr inbounds nuw %struct.anon.15, ptr %41, i32 0, i32 4
  %43 = load i32, ptr %42, align 4
  %44 = icmp ne i32 %39, %43
  %45 = zext i1 %44 to i32
  %46 = icmp ne i32 %45, 0
  %47 = zext i1 %46 to i32
  %48 = sext i32 %47 to i64
  %49 = call i64 @llvm.expect.i64(i64 %48, i64 0)
  %50 = icmp ne i64 %49, 0
  br i1 %50, label %51, label %74

51:                                               ; preds = %3
  br label %52

52:                                               ; preds = %51
  br i1 true, label %53, label %55

53:                                               ; preds = %52
  %54 = call zeroext i1 @errstart_cold(i32 noundef 21, ptr noundef @.str.2) #13
  br i1 %54, label %57, label %71

55:                                               ; preds = %52
  %56 = call zeroext i1 @errstart(i32 noundef 21, ptr noundef @.str.2)
  br i1 %56, label %57, label %71

57:                                               ; preds = %55, %53
  %58 = call i32 @errcode(i32 noundef 67141764)
  %59 = load ptr, ptr %5, align 8
  %60 = getelementptr inbounds nuw %struct.ExprEvalStep, ptr %59, i32 0, i32 3
  %61 = getelementptr inbounds nuw %struct.anon.15, ptr %60, i32 0, i32 3
  %62 = load i32, ptr %61, align 8
  %63 = load i32, ptr %11, align 4
  %64 = call ptr @format_type_be(i32 noundef %63)
  %65 = load ptr, ptr %5, align 8
  %66 = getelementptr inbounds nuw %struct.ExprEvalStep, ptr %65, i32 0, i32 3
  %67 = getelementptr inbounds nuw %struct.anon.15, ptr %66, i32 0, i32 4
  %68 = load i32, ptr %67, align 4
  %69 = call ptr @format_type_be(i32 noundef %68)
  %70 = call i32 (ptr, ...) @errmsg(ptr noundef @.str.137, i32 noundef %62, ptr noundef %64, ptr noundef %69)
  call void @errfinish(ptr noundef @.str.4, i32 noundef 6893, ptr noundef @__func__.plpgsql_param_eval_generic_ro)
  br label %71

71:                                               ; preds = %57, %55, %53
  unreachable

72:                                               ; No predecessors!
  br label %73

73:                                               ; preds = %72
  br label %74

74:                                               ; preds = %73, %3
  %75 = load ptr, ptr %5, align 8
  %76 = getelementptr inbounds nuw %struct.ExprEvalStep, ptr %75, i32 0, i32 2
  %77 = load ptr, ptr %76, align 8
  %78 = load i8, ptr %77, align 1, !range !3, !noundef !4
  %79 = trunc i8 %78 to i1
  br i1 %79, label %80, label %85

80:                                               ; preds = %74
  %81 = load ptr, ptr %5, align 8
  %82 = getelementptr inbounds nuw %struct.ExprEvalStep, ptr %81, i32 0, i32 1
  %83 = load ptr, ptr %82, align 8
  %84 = load i64, ptr %83, align 8
  br label %91

85:                                               ; preds = %74
  %86 = load ptr, ptr %5, align 8
  %87 = getelementptr inbounds nuw %struct.ExprEvalStep, ptr %86, i32 0, i32 1
  %88 = load ptr, ptr %87, align 8
  %89 = load i64, ptr %88, align 8
  %90 = call i64 @MakeExpandedObjectReadOnlyInternal(i64 noundef %89)
  br label %91

91:                                               ; preds = %85, %80
  %92 = phi i64 [ %84, %80 ], [ %90, %85 ]
  %93 = load ptr, ptr %5, align 8
  %94 = getelementptr inbounds nuw %struct.ExprEvalStep, ptr %93, i32 0, i32 1
  %95 = load ptr, ptr %94, align 8
  store i64 %92, ptr %95, align 8
  call void @llvm.lifetime.end.p0(i64 4, ptr %12) #12
  call void @llvm.lifetime.end.p0(i64 4, ptr %11) #12
  call void @llvm.lifetime.end.p0(i64 8, ptr %10) #12
  call void @llvm.lifetime.end.p0(i64 4, ptr %9) #12
  call void @llvm.lifetime.end.p0(i64 8, ptr %8) #12
  call void @llvm.lifetime.end.p0(i64 8, ptr %7) #12
  ret void
}